; Function Attrs: mustprogress nofree norecurse nosync nounwind willreturn memory(argmem: readwrite) uwtable
define dso_local range(i64 -60, 1) i64 @ZSTD_CCtx_setParametersUsingCCtxParams(ptr noundef captures(none) %0, ptr noundef readonly captures(none) %1) local_unnamed_addr #7 {
  %3 = getelementptr inbounds nuw i8, ptr %0, i64 3584
  %4 = load i32, ptr %3, align 8
  %.not = icmp eq i32 %4, 0
  br i1 %.not, label %5, label %10

5:                                                ; preds = %2
  %6 = getelementptr inbounds nuw i8, ptr %0, i64 3672
  %7 = load ptr, ptr %6, align 8
  %.not4 = icmp eq ptr %7, null
  br i1 %.not4, label %8, label %10

8:                                                ; preds = %5
  %9 = getelementptr inbounds nuw i8, ptr %0, i64 16
  tail call void @llvm.memcpy.p0.p0.i64(ptr noundef nonnull align 8 dereferenceable(208) %9, ptr noundef nonnull align 8 dereferenceable(208) %1, i64 208, i1 false)
  br label %10

10:                                               ; preds = %5, %2, %8
  %.0 = phi i64 [ 0, %8 ], [ -60, %2 ], [ -60, %5 ]
  ret i64 %.0
}